(lp1
(dp2
(I7
I3
tp3
F508.36235306866132
s(I16
I9
tp4
F591.62755306509769
s(I19
I4
tp5
F575.1885420996332
s(I17
I20
tp6
F634.16273253886754
s(I20
I7
tp7
F593.14816309378421
s(I18
I19
tp8
F633.02307839114894
s(I8
I5
tp9
F531.07823367765297
s(I9
I0
tp10
F495.57521839658074
s(I10
I7
tp11
F556.33249252086728
s(I0
I17
tp12
F552.17946836884494
s(I14
I1
tp13
F534.24157909915539
s(I12
I17
tp14
F614.8461518218262
s(I15
I4
tp15
F559.52419455833774
s(I13
I20
tp16
F626.87735375277805
s(I3
I2
tp17
F469.40451566379119
s(I4
I5
tp18
F504.94481436957329
s(I16
I0
tp19
F537.02474531526275
s(I19
I13
tp20
F615.39463354255474
s(I17
I13
tp21
F611.7912417940654
s(I20
I14
tp22
F620.2488337365653
s(I18
I10
tp23
F601.56880224713132
s(I8
I12
tp24
F577.23852940313543
s(I9
I9
tp25
F564.45041656115382
s(I10
I14
tp26
F595.72487493980452
s(I8
I18
tp27
F605.20425139570091
s(I11
I15
tp28
F603.74560834357101
s(I9
I19
tp29
F612.51321695459535
s(I14
I8
tp30
F579.58361854576651
s(I12
I8
tp31
F571.68515361500658
s(I15
I13
tp32
F607.06508958625375
s(I13
I13
tp33
F601.32695399454599
s(I2
I18
tp34
F571.76739593392131
s(I0
I14
tp35
F534.74209813108087
s(I3
I11
tp36
F540.74209824697232
s(I1
I15
tp37
F548.63956275740031
s(I4
I12
tp38
F554.40145364534465
s(I2
I12
tp39
F538.74210711519117
s(I5
I1
tp40
F475.4864504948261
s(I3
I17
tp41
F573.76741018863527
s(I16
I7
tp42
F581.18855994666353
s(I6
I14
tp43
F577.85116817358471
s(I19
I18
tp44
F631.41328413128758
s(I17
I6
tp45
F579.18856632325958
s(I7
I15
tp46
F587.88635579129073
s(I18
I5
tp47
F577.18857144262813
s(I10
I9
tp48
F569.06197470655036
s(I11
I4
tp49
F540.24158390170703
s(I9
I20
tp50
F615.58162573785398
s(I14
I19
tp51
F626.4061228134517
s(I12
I7
tp52
F565.52421252075465
s(I10
I19
tp53
F615.85392761403511
s(I15
I10
tp54
F593.46248713772206
s(I13
I6
tp55
F563.52421766002681
s(I0
I5
tp56
F468.87114910607738
s(I1
I0
tp57
F431.28674761920882
s(I4
I11
tp58
F548.37695156684435
s(I2
I7
tp59
F504.40282536698589
s(I5
I10
tp60
F548.896401462158
s(I6
I1
tp61
F483.05904012149347
s(I4
I17
tp62
F580.46028340936152
s(I7
I4
tp63
F516.91293572054531
s(I5
I20
tp64
F598.33302236440102
s(I16
I20
tp65
F632.70356748175629
s(I19
I1
tp66
F557.59030131743737
s(I17
I17
tp67
F625.95596908087987
s(I8
I0
tp68
F488.44968473820381
s(I15
I19
tp69
F628.43145966988061
s(I11
I19
tp70
F618.88585795664915
s(I12
I20
tp71
F624.45887261572773
s(I16
I11
tp72
F601.03728699245903
s(I6
I18
tp73
F596.29462222625853
s(I19
I6
tp74
F585.62760619619837
s(I17
I10
tp75
F599.14821335134388
s(I20
I1
tp76
F561.55803947725951
s(I18
I17
tp77
F627.40223146416031
s(I8
I7
tp78
F546.11248345528338
s(I9
I6
tp79
F544.24160012064578
s(I10
I5
tp80
F542.24160457977655
s(I11
I8
tp81
F567.39625593029496
s(I0
I19
tp82
F562.8126005034444
s(I14
I7
tp83
F573.79786596449469
s(I12
I19
tp84
F621.64187159845426
s(I1
I18
tp85
F564.81260053353947
s(I15
I6
tp86
F571.79787087134878
s(I13
I18
tp87
F621.00804301461301
s(I0
I9
tp88
F500.47241871727761
s(I3
I4
tp89
F488.20230154051978
s(I4
I7
tp90
F520.98464786839054
s(I5
I6
tp91
F520.37807217351508
s(I16
I2
tp92
F551.04701094617235
s(I19
I15
tp93
F622.24888796178038
s(I17
I3
tp94
F561.77381540791032
s(I7
I16
tp95
F592.53595267842832
s(I20
I8
tp96
F597.56885427115674
s(I18
I8
tp97
F592.49905175989852
s(I8
I14
tp98
F587.61285274415172
s(I9
I15
tp99
F596.51959311040207
s(I10
I12
tp100
F585.86437470433464
s(I8
I20
tp101
F611.9736950073044
s(I11
I1
tp102
F517.15922866718688
s(I9
I17
tp103
F605.11793530744933
s(I14
I14
tp104
F608.56219531858846
s(I12
I10
tp105
F583.05257873322967
s(I15
I15
tp106
F615.06878444111851
s(I13
I11
tp107
F591.85262302679882
s(I2
I16
tp108
F561.60471954068555
s(I0
I0
tp109
F421.41301203830704
s(I3
I13
tp110
F552.639596724488
s(I1
I13
tp111
F536.74213644743793
s(I4
I14
tp112
F565.60472848420397
s(I2
I10
tp113
F525.74758369072788
s(I5
I15
tp114
F577.22519524844677
s(I3
I19
tp115
F582.85643786472372
s(I6
I12
tp116
F567.02466494965904
s(I4
I20
tp117
F592.8914369203402
s(I19
I20
tp118
F636.3049767152603
s(I17
I4
tp119
F567.79788346079283
s(I7
I9
tp120
F554.2704010933262
s(I18
I3
tp121
F565.79788614516428
s(I11
I6
tp122
F554.33254322705432
s(I14
I17
tp123
F620.01915497168125
s(I12
I1
tp124
F523.07827775608507
s(I10
I17
tp125
F608.65645056025892
s(I15
I20
tp126
F630.99853042817517
s(I13
I4
tp127
F550.33254950066453
s(I0
I7
tp128
F485.11330829640116
s(I1
I6
tp129
F487.07579469813157
s(I2
I5
tp130
F488.1912252112632
s(I5
I8
tp131
F535.39346356334988
s(I6
I7
tp132
F534.56193675386601
s(I4
I19
tp133
F588.96960305959931
s(I7
I6
tp134
F533.07828282035609
s(I5
I18
tp135
F590.96960595975497
s(I19
I3
tp136
F569.58821110705935
s(I20
I4
tp137
F578.53815974630118
s(I18
I20
tp138
F635.36556753974048
s(I8
I2
tp139
F506.36240147559772
s(I9
I3
tp140
F521.15924262877581
s(I14
I2
tp141
F541.39234257604983
s(I3
I1
tp142
F459.55455644243153
s(I16
I13
tp143
F609.56618014523588
s(I6
I16
tp144
F587.62049065024553
s(I19
I8
tp145
F595.14825077115563
s(I17
I8
tp146
F589.62764980452903
s(I20
I3
tp147
F573.18863112838062
s(I18
I15
tp148
F620.9099856622156
s(I8
I9
tp149
F559.53803033361794
s(I9
I4
tp150
F529.07829640431419
s(I10
I3
tp151
F527.07830056437001
s(I11
I10
tp152
F579.1228336129368
s(I14
I5
tp153
F561.52427035760354
s(I12
I13
tp154
F598.10605099011718
s(I1
I16
tp155
F554.17954199823373
s(I15
I0
tp156
F531.95557088003159
s(I13
I16
tp157
F613.8360209395629
s(I0
I11
tp158
F514.99026475311609
s(I3
I6
tp159
F505.25296818468382
s(I1
I10
tp160
F516.99027179354255
s(I4
I1
tp161
F467.64361594782827
s(I5
I4
tp162
F503.57527835631487
s(I16
I4
tp163
F563.77384774692894
s(I6
I11
tp164
F561.18524833522224
s(I19
I17
tp165
F628.55264410576672
s(I17
I1
tp166
F548.95342488270444
s(I7
I18
tp167
F600.99933854160736
s(I20
I10
tp168
F605.8293680667266
s(I18
I6
tp169
F582.53818270592649
s(I9
I13
tp170
F586.90835193031364
s(I10
I10
tp171
F574.94728772570272
s(I11
I3
tp172
F532.81635894771114
s(I14
I12
tp173
F599.8474741495711
s(I12
I4
tp174
F545.39236363732221
s(I10
I20
tp175
F618.83835450918878
s(I15
I9
tp176
F588.46120884160484
s(I13
I9
tp177
F581.39022114058685
s(I0
I2
tp178
F441.24094864337786
s(I3
I15
tp179
F563.60475751118986
s(I1
I3
tp180
F460.71877931972733
s(I4
I8
tp181
F528.3742860164831
s(I2
I8
tp182
F511.88456058718896
s(I5
I13
tp183
F566.73384787810789
s(I6
I2
tp184
F492.44972250432085
s(I7
I11
tp185
F566.64445877238802
s(I20
I17
tp186
F629.41338317094539
s(I18
I1
tp187
F553.38588528126502
s(I16
I17
tp188
F624.23133614008452
s(I12
I3
tp189
F538.24166084149817
s(I13
I2
tp190
F536.24166329663706
s(I1
I4
tp191
F469.95009213396662
s(I2
I3
tp192
F470.18661948058428
s(I6
I5
tp193
F518.91299545154118
s(I7
I0
tp194
F481.0591016228235
s(I5
I16
tp195
F582.08372553733193
s(I16
I8
tp196
F586.53819537665572
s(I19
I5
tp197
F580.53820043987957
s(I20
I6
tp198
F588.49911386013423
s(I18
I18
tp199
F630.34397826785732
s(I8
I4
tp200
F523.15927917172326
s(I9
I1
tp201
F504.36244857507057
s(I10
I6
tp202
F549.39238351448705
s(I0
I16
tp203
F546.63964570290625
s(I14
I0
tp204
F526.63631112859821
s(I12
I16
tp205
F611.01327600395734
s(I15
I5
tp206
F565.77387476331671
s(I3
I3
tp207
F478.99537370541685
s(I4
I4
tp208
F496.23390210836129
s(I16
I15
tp209
F617.2925863649773
s(I19
I10
tp210
F603.7794685727298
s(I17
I14
tp211
F615.61274145511436
s(I20
I13
tp212
F616.91003678253185
s(I18
I13
tp213
F613.7029663671633
s(I8
I11
tp214
F571.63791435804069
s(I9
I10
tp215
F570.50045757991074
s(I10
I1
tp216
F510.91301495702487
s(I8
I17
tp217
F601.22609364778168
s(I11
I12
tp218
F589.72847444635795
s(I14
I11
tp219
F595.15370852890305
s(I12
I15
tp220
F606.9404495502248
s(I15
I2
tp221
F546.33260486179211
s(I13
I14
tp222
F605.71825716161743
s(I0
I13
tp223
F528.34798925806319
s(I3
I8
tp224
F520.55700828758779
s(I1
I8
tp225
F502.47250335500877
s(I4
I3
tp226
F487.05911684774753
s(I2
I15
tp227
F556.17956823777274
s(I5
I2
tp228
F485.0591240918497
s(I16
I6
tp229
F575.58826483179359
s(I6
I9
tp230
F548.56830418269283
s(I19
I19
tp231
F634.02200410427338
s(I17
I7
tp232
F584.538221346765
s(I7
I12
tp233
F572.37050476041281
s(I20
I20
tp234
F636.98809141943957
s(I18
I4
tp235
F571.58827365469187
s(I10
I8
tp236
F562.86866326489121
s(I11
I5
tp237
F547.39239516721875
s(I14
I18
tp238
F623.36679104542191
s(I12
I6
tp239
F559.04708666021304
s(I10
I18
tp240
F612.42957381273175
s(I15
I11
tp241
F598.22113006462644
s(I13
I7
tp242
F569.77389693175223
s(I0
I4
tp243
F460.07912623487135
s(I1
I1
tp244
F441.25899039362531
s(I4
I10
tp245
F542.04564742833327
s(I2
I6
tp246
F496.51525685954812
s(I5
I11
tp247
F555.14431261558752
s(I6
I0
tp248
F473.48655565906972
s(I4
I16
tp249
F575.76750898767125
s(I7
I5
tp250
F525.15930600818751
s(I20
I19
tp251
F634.75202483134888
s(I16
I19
tp252
F630.21677108807478
s(I17
I18
tp253
F628.99072882356597
s(I15
I16
tp254
F618.76512464121754
s(I13
I0
tp255
F521.04832320095636
s(I11
I16
tp256
F607.94073032182962
s(I2
I1
tp257
F450.73223496829206
s(I7
I2
tp258
F499.57534066134173
s(I16
I10
tp259
F596.45025335876642
s(I19
I7
tp260
F590.499149003311
s(I17
I11
tp261
F603.56895828266192
s(I20
I0
tp262
F554.94672246751077
s(I18
I16
tp263
F624.24902642404118
s(I8
I6
tp264
F538.81640731299888
s(I9
I7
tp265
F551.3637125769153
s(I10
I4
tp266
F534.81641368243982
s(I11
I9
tp267
F573.40889117791335
s(I0
I18
tp268
F557.6047948356287
s(I14
I6
tp269
F567.7739076500518
s(I12
I18
tp270
F618.40891317632088
s(I1
I19
tp271
F569.76751402372452
s(I15
I7
tp272
F577.58829257406603
s(I13
I19
tp273
F624.14449437233634
s(I0
I8
tp274
F492.97669604279895
s(I3
I5
tp275
F496.95829678407534
s(I4
I6
tp276
F513.18634011475433
s(I5
I7
tp277
F528.09038242498536
s(I16
I1
tp278
F544.29163485609865
s(I6
I20
tp279
F603.45095641224259
s(I19
I12
tp280
F611.70299823461676
s(I17
I12
tp281
F607.77952548309861
s(I7
I17
tp282
F596.918120714407
s(I20
I15
tp283
F623.4893002475452
s(I18
I11
tp284
F605.77953277857239
s(I8
I13
tp285
F582.55938367007388
s(I9
I8
tp286
F558.08206813139066
s(I10
I15
tp287
F600.28303326848732
s(I8
I19
tp288
F608.81935734497461
s(I11
I14
tp289
F599.31378102767314
s(I9
I18
tp290
F608.99405134196786
s(I14
I9
tp291
F585.0416251805475
s(I12
I9
tp292
F577.5139840960768
s(I1
I20
tp293
F574.46038275274361
s(I15
I12
tp294
F602.75199561457964
s(I13
I12
tp295
F596.70808942999304
s(I2
I19
tp296
F576.46038314076884
s(I0
I15
tp297
F540.83280142777926
s(I3
I10
tp298
F534.34802825572342
s(I1
I14
tp299
F542.83280805929041
s(I4
I13
tp300
F560.13860827576627
s(I2
I13
tp301
F544.83281176640105
s(I5
I0
tp302
F465.64369562836515
s(I3
I16
tp303
F568.81270030961946
s(I6
I15
tp304
F582.8650420520089
s(I17
I5
tp305
F573.58830098635315
s(I7
I14
tp306
F582.97922324337139
s(I18
I2
tp307
F559.77392155418318
s(I11
I7
tp308
F561.0471165356289
s(I14
I16
tp309
F616.4197321274977
s(I12
I0
tp310
F515.15932757560802
s(I10
I16
tp311
F604.59708794963717
s(I13
I5
tp312
F557.04712101158316
s(I0
I6
tp313
F477.20964082051165
s(I1
I7
tp314
F494.97671407322741
s(I2
I4
tp315
F479.41107384699143
s(I5
I9
tp316
F542.32030592985518
s(I6
I6
tp317
F526.96478861866683
s(I4
I18
tp318
F584.85652385568335
s(I7
I7
tp319
F540.53511469797877
s(I5
I19
tp320
F594.89152762616493
s(I19
I0
tp321
F550.82048188288559
s(I17
I16
tp322
F622.69992163264078
s(I8
I1
tp323
F497.57535822203323
s(I15
I18
tp324
F625.48806511362295
s(I11
I18
tp325
F615.55683980467643
s(I16
I12
tp326
F605.40588184032856
s(I6
I19
tp327
F600.11047529023517
s(I19
I9
tp328
F599.5689940064035
s(I17
I9
tp329
F594.49918070700414
s(I20
I2
tp330
F567.58831338827576
s(I18
I14
tp331
F617.39487382707216
s(I8
I8
tp332
F553.00426594887119
s(I9
I5
tp333
F536.81643420927935
s(I10
I2
tp334
F519.15933953885587
s(I11
I11
tp335
F584.55852127691173
s(I0
I20
tp336
F567.76754683389117
s(I14
I4
tp337
F555.04713452983253
s(I12
I12
tp338
F593.33731813362158
s(I1
I17
tp339
F559.60482298173076
s(I15
I1
tp340
F539.39244504262138
s(I13
I17
tp341
F617.55290067154249
s(I0
I10
tp342
F507.88464070619267
s(I3
I7
tp343
F513.1088451926986
s(I1
I11
tp344
F523.74770155233659
s(I4
I0
tp345
F457.67407226669764
s(I5
I5
tp346
F512.21783745490188
s(I16
I3
tp347
F557.52436744349052
s(I6
I10
tp348
F555.03942984662876
s(I19
I14
tp349
F618.91015050497515
s(I17
I2
tp350
F555.52436842426903
s(I7
I19
tp351
F604.71262714995123
s(I20
I9
tp352
F601.77957075355516
s(I18
I9
tp353
F597.14838391439173
s(I8
I15
tp354
F592.40891195449478
s(I9
I14
tp355
F591.84019762337402
s(I10
I13
tp356
F590.92143563325317
s(I11
I0
tp357
F508.91306895295514
s(I9
I16
tp358
F600.94916141571446
s(I14
I15
tp359
F612.59734665501082
s(I12
I11
tp360
F588.3228935971382
s(I15
I14
tp361
F611.16909500114093
s(I13
I10
tp362
F586.75118716650377
s(I2
I17
tp363
F566.81271873076787
s(I0
I1
tp364
F431.38534506432194
s(I3
I12
tp365
F546.83283335246017
s(I1
I12
tp366
F530.34806092658118
s(I4
I15
tp367
F570.81272625331223
s(I2
I11
tp368
F532.34806176097493
s(I5
I14
tp369
F572.1103159769234
s(I3
I18
tp370
F578.46043698326127
s(I6
I13
tp371
F572.57504220274643
s(I7
I8
tp372
F547.58562447627287
s(I20
I16
tp373
F626.55284534321083
s(I18
I0
tp374
F546.45365638409112
s(I16
I16
tp375
F620.86424900974646
s(I12
I2
tp376
F530.81644657822142
s(I13
I3
tp377
F543.3924507731515
s(I1
I5
tp378
F478.74016895596969
s(I2
I2
tp379
F460.58610614525702
s(I6
I4
tp380
F510.36251294522509
s(I7
I1
tp381
F490.44981110346527
s(I5
I17
tp382
F586.67669248861694
s(I19
I2
tp383
F563.79801482203595
s(I20
I5
tp384
F583.62777469266177
s(I8
I3
tp385
F514.91308094869885
s(I9
I2
tp386
F512.91308507125962
s(I11
I20
tp387
F621.78681548587826
s(I14
I3
tp388
F548.33267876104378
s(I3
I0
tp389
F449.58360760394169
s(I16
I14
tp390
F613.52683462593541
s(I6
I17
tp391
F592.10842691167886
s(I19
I11
tp392
F607.82952128254647
s(I17
I15
tp393
F619.24899450213843
s(I7
I20
tp394
F607.95719568881873
s(I20
I12
tp395
F613.39492163758155
s(I18
I12
tp396
F609.82953942249219
s(I8
I10
tp397
F565.743000234325
s(I9
I11
tp398
F576.25087687797804
s(I10
I0
tp399
F502.3625313035426
s(I8
I16
tp400
F596.95006765404332
s(I11
I13
tp401
F594.64378183317604
s(I14
I10
tp402
F590.22311700853675
s(I12
I14
tp403
F602.63842777915875
s(I15
I3
tp404
F553.04715181330357
s(I13
I15
tp405
F609.88784712195104
s(I2
I20
tp406
F580.85657363479891
s(I0
I12
tp407
F521.74771671512997
s(I3
I9
tp408
F527.62784718055309
s(I1
I9
tp409
F509.88466433117259
s(I4
I2
tp410
F477.48660703864249
s(I2
I14
tp411
F550.63973451521872
s(I5
I3
tp412
F494.44983096615175
s(I16
I5
tp413
F569.79802413401353
s(I6
I8
tp414
F541.75129507975817
s(I19
I16
tp415
F625.48942600811267
s(I17
I0
tp416
F541.85543079902254
s(I7
I13
tp417
F577.8108016287523
s(I20
I11
tp418
F609.70311156990306
s(I18
I7
tp419
F587.62778766400686
s(I9
I12
tp420
F581.71589653800265
s(I10
I11
tp421
F580.54374534559361
s(I11
I2
tp422
F525.07842130507811
s(I14
I13
tp423
F604.31440843170424
s(I12
I5
tp424
F552.33268537095046
s(I15
I8
tp425
F583.1887626293161
s(I13
I8
tp426
F575.74683852874557
s(I0
I3
tp427
F450.84638616865851
s(I3
I14
tp428
F558.17965759254457
s(I1
I2
tp429
F451.11442286625106
s(I4
I9
tp430
F535.38595387528221
s(I2
I9
tp431
F518.9903969066429
s(I5
I12
tp432
F561.08401389347102
s(I3
I20
tp433
F586.96974554319286
s(I6
I3
tp434
F501.57540309367982
s(I7
I10
tp435
F560.61692084881088
s(I20
I18
tp436
F632.20010149944073
s(I16
I18
tp437
F627.36682118402928
s(I17
I19
tp438
F631.75187783527861
s(I14
I20
tp439
F629.05588091862865
s(I15
I17
tp440
F622.24778145603489
s(I13
I1
tp441
F528.81647543399436
s(I11
I17
tp442
F611.88827051527255
s(I2
I0
tp443
F440.76045849684772
sa(dp444
g3
I1
sg4
I0
sg5
I4
sg6
I0
sg7
I3
sg8
I0
sg9
I1
sg10
I4
sg11
I0
sg12
I-3
sg13
I5
sg14
I0
sg15
I3
sg16
I0
sg17
I0
sg18
I0
sg19
I5
sg20
I1
sg21
I0
sg22
I2
sg23
I1
sg24
I0
sg25
I0
sg26
I0
sg27
I0
sg28
I0
sg29
I0
sg30
I0
sg31
I0
sg32
I0
sg33
I0
sg34
I-2
sg35
I-3
sg36
I0
sg37
I-2
sg38
I0
sg39
I-1
sg40
I1
sg41
I-1
sg42
I1
sg43
I0
sg44
I0
sg45
I2
sg46
I0
sg47
I3
sg48
I0
sg49
I2
sg50
I0
sg51
I0
sg52
I0
sg53
I0
sg54
I0
sg55
I1
sg56
I0
sg57
I0
sg58
I0
sg59
I0
sg60
I0
sg61
I2
sg62
I0
sg63
I1
sg64
I0
sg65
I0
sg66
I5
sg67
I0
sg68
I3
sg69
I0
sg70
I0
sg71
I0
sg72
I0
sg73
I0
sg74
I3
sg75
I0
sg76
I5
sg77
I0
sg78
I0
sg79
I0
sg80
I1
sg81
I0
sg82
I-4
sg83
I0
sg84
I0
sg85
I-3
sg86
I1
sg87
I0
sg88
I-1
sg89
I0
sg90
I0
sg91
I0
sg92
I5
sg93
I1
sg94
I4
sg95
I0
sg96
I3
sg97
I1
sg98
I0
sg99
I0
sg100
I0
sg101
I0
sg102
I4
sg103
I0
sg104
I0
sg105
I0
sg106
I0
sg107
I0
sg108
I-2
sg109
I0
sg110
I0
sg111
I-2
sg112
I0
sg113
I0
sg114
I0
sg115
I-1
sg116
I0
sg117
I-1
sg118
I0
sg119
I3
sg120
I0
sg121
I4
sg122
I1
sg123
I0
sg124
I5
sg125
I0
sg126
I0
sg127
I3
sg128
I0
sg129
I0
sg130
I0
sg131
I0
sg132
I0
sg133
I-1
sg134
I0
sg135
I0
sg136
I4
sg137
I4
sg138
I0
sg139
I2
sg140
I2
sg141
I4
sg142
I0
sg143
I0
sg144
I0
sg145
I2
sg146
I1
sg147
I5
sg148
I0
sg149
I0
sg150
I2
sg151
I3
sg152
I0
sg153
I2
sg154
I0
sg155
I-2
sg156
I5
sg157
I0
sg158
I-2
sg159
I0
sg160
I-1
sg161
I0
sg162
I0
sg163
I3
sg164
I0
sg165
I0
sg166
I5
sg167
I0
sg168
I2
sg169
I2
sg170
I0
sg171
I0
sg172
I3
sg173
I0
sg174
I2
sg175
I0
sg176
I0
sg177
I0
sg178
I0
sg179
I-1
sg180
I0
sg181
I0
sg182
I0
sg183
I0
sg184
I1
sg185
I0
sg186
I1
sg187
I5
sg188
I0
sg189
I3
sg190
I4
sg191
I0
sg192
I0
sg193
I0
sg194
I3
sg195
I0
sg196
I0
sg197
I3
sg198
I3
sg199
I0
sg200
I1
sg201
I3
sg202
I0
sg203
I-3
sg204
I5
sg205
I0
sg206
I2
sg207
I0
sg208
I0
sg209
I0
sg210
I2
sg211
I0
sg212
I2
sg213
I0
sg214
I0
sg215
I0
sg216
I4
sg217
I0
sg218
I0
sg219
I0
sg220
I0
sg221
I5
sg222
I0
sg223
I-3
sg224
I0
sg225
I0
sg226
I0
sg227
I-1
sg228
I1
sg229
I1
sg230
I0
sg231
I0
sg232
I1
sg233
I0
sg234
I0
sg235
I3
sg236
I0
sg237
I1
sg238
I0
sg239
I1
sg240
I0
sg241
I0
sg242
I0
sg243
I0
sg244
I0
sg245
I0
sg246
I0
sg247
I0
sg248
I2
sg249
I0
sg250
I0
sg251
I0
sg252
I0
sg253
I0
sg254
I0
sg255
I5
sg256
I0
sg257
I0
sg258
I2
sg259
I0
sg260
I2
sg261
I0
sg262
I5
sg263
I0
sg264
I0
sg265
I0
sg266
I2
sg267
I0
sg268
I-4
sg269
I1
sg270
I0
sg271
I-3
sg272
I0
sg273
I0
sg274
I-1
sg275
I0
sg276
I0
sg277
I0
sg278
I5
sg279
I0
sg280
I1
sg281
I0
sg282
I0
sg283
I1
sg284
I1
sg285
I0
sg286
I0
sg287
I0
sg288
I0
sg289
I0
sg290
I0
sg291
I0
sg292
I0
sg293
I-3
sg294
I0
sg295
I0
sg296
I-2
sg297
I-3
sg298
I0
sg299
I-2
sg300
I0
sg301
I-1
sg302
I1
sg303
I-1
sg304
I0
sg305
I2
sg306
I0
sg307
I5
sg308
I0
sg309
I0
sg310
I5
sg311
I0
sg312
I2
sg313
I0
sg314
I0
sg315
I0
sg316
I0
sg317
I0
sg318
I0
sg319
I0
sg320
I0
sg321
I5
sg322
I0
sg323
I3
sg324
I0
sg325
I0
sg326
I0
sg327
I0
sg328
I2
sg329
I0
sg330
I5
sg331
I0
sg332
I0
sg333
I1
sg334
I3
sg335
I0
sg336
I-4
sg337
I3
sg338
I0
sg339
I-3
sg340
I5
sg341
I0
sg342
I-2
sg343
I0
sg344
I-1
sg345
I0
sg346
I0
sg347
I4
sg348
I0
sg349
I1
sg350
I5
sg351
I0
sg352
I3
sg353
I1
sg354
I0
sg355
I0
sg356
I0
sg357
I5
sg358
I0
sg359
I0
sg360
I0
sg361
I0
sg362
I0
sg363
I-2
sg364
I0
sg365
I0
sg366
I-2
sg367
I0
sg368
I-1
sg369
I0
sg370
I-1
sg371
I0
sg372
I0
sg373
I1
sg374
I5
sg375
I0
sg376
I4
sg377
I3
sg378
I0
sg379
I0
sg380
I0
sg381
I2
sg382
I0
sg383
I5
sg384
I4
sg385
I2
sg386
I3
sg387
I0
sg388
I4
sg389
I0
sg390
I0
sg391
I0
sg392
I1
sg393
I0
sg394
I0
sg395
I2
sg396
I0
sg397
I0
sg398
I0
sg399
I4
sg400
I0
sg401
I0
sg402
I0
sg403
I0
sg404
I4
sg405
I0
sg406
I-2
sg407
I-2
sg408
I0
sg409
I-1
sg410
I0
sg411
I-1
sg412
I0
sg413
I2
sg414
I0
sg415
I0
sg416
I5
sg417
I0
sg418
I2
sg419
I2
sg420
I0
sg421
I0
sg422
I4
sg423
I0
sg424
I2
sg425
I0
sg426
I0
sg427
I0
sg428
I0
sg429
I0
sg430
I0
sg431
I0
sg432
I0
sg433
I-2
sg434
I1
sg435
I0
sg436
I0
sg437
I0
sg438
I0
sg439
I0
sg440
I0
sg441
I5
sg442
I0
sg443
I0
sa.