(lp1
(dp2
(I7
I3
tp3
F518.97907961608303
s(I16
I9
tp4
F588.07434394204085
s(I19
I4
tp5
F575.08338895251484
s(I17
I20
tp6
F603.10197959802338
s(I20
I7
tp7
F588.58229283395553
s(I18
I19
tp8
F602.96468265586975
s(I8
I5
tp9
F541.05745075388529
s(I9
I0
tp10
F506.05812211063397
s(I10
I7
tp11
F563.65098370413955
s(I0
I17
tp12
F553.25659777341707
s(I14
I1
tp13
F543.22689269929049
s(I12
I17
tp14
F597.46208727837541
s(I15
I4
tp15
F564.54330981482133
s(I13
I20
tp16
F601.09698990529751
s(I3
I2
tp17
F478.17884855120991
s(I4
I5
tp18
F513.00320638213009
s(I16
I0
tp19
F544.42880188668323
s(I19
I13
tp20
F599.03630363127013
s(I17
I13
tp21
F596.97267411236714
s(I20
I14
tp22
F600.61721256615988
s(I18
I10
tp23
F593.93282473643944
s(I8
I12
tp24
F577.56157910747527
s(I9
I9
tp25
F569.74717897590085
s(I10
I14
tp26
F588.69211587975542
s(I8
I18
tp27
F593.01269643428691
s(I11
I15
tp28
F592.73349580170316
s(I9
I19
tp29
F596.82344468830945
s(I14
I8
tp30
F580.35188937177065
s(I12
I8
tp31
F575.31372438229118
s(I15
I13
tp32
F594.42075943936743
s(I13
I13
tp33
F591.77432503250668
s(I2
I18
tp34
F567.89327224555689
s(I0
I14
tp35
F539.2681313754747
s(I3
I11
tp36
F545.26813141834555
s(I1
I15
tp37
F550.94173053383201
s(I4
I12
tp38
F556.9417306282877
s(I2
I12
tp39
F543.26813905355152
s(I5
I1
tp40
F485.93697454829351
s(I3
I17
tp41
F569.89329282721781
s(I16
I7
tp42
F581.04102597241365
s(I6
I14
tp43
F575.67220926355822
s(I19
I18
tp44
F602.96472029665097
s(I17
I6
tp45
F579.08342977359462
s(I7
I15
tp46
F582.77112090956894
s(I18
I5
tp47
F577.08344127850887
s(I10
I9
tp48
F573.56477426286972
s(I11
I4
tp49
F549.22690070066983
s(I9
I20
tp50
F598.37573557435587
s(I14
I19
tp51
F600.6423688564654
s(I12
I7
tp52
F570.54334276736279
s(I10
I19
tp53
F598.08851400693561
s(I15
I10
tp54
F588.87542033827526
s(I13
I6
tp55
F568.54335330712195
s(I0
I5
tp56
F476.48562017345324
s(I1
I0
tp57
F439.35143501010418
s(I4
I11
tp58
F552.36052548922396
s(I2
I7
tp59
F511.53498856280703
s(I5
I10
tp60
F554.03736171860771
s(I6
I1
tp61
F493.58148128970629
s(I4
I17
tp62
F575.00106736145381
s(I7
I4
tp63
F527.30394072127729
s(I5
I20
tp64
F587.32014174312383
s(I16
I20
tp65
F602.58500439711111
s(I19
I1
tp66
F560.75488975045118
s(I17
I17
tp67
F600.98645425437928
s(I8
I0
tp68
F499.06271627530208
s(I15
I19
tp69
F601.23703078091353
s(I11
I19
tp70
F598.9297687901161
s(I12
I20
tp71
F600.67201971458337
s(I16
I11
tp72
F592.71873128379593
s(I6
I18
tp73
F586.89219437804365
s(I19
I6
tp74
F583.33270803537982
s(I17
I10
tp75
F592.37736360698557
s(I20
I1
tp76
F563.60185782557642
s(I18
I17
tp77
F601.65966900844842
s(I8
I7
tp78
F554.36538953303477
s(I9
I6
tp79
F553.20349071872317
s(I10
I5
tp80
F551.22693311788123
s(I11
I8
tp81
F572.37225590278069
s(I0
I19
tp82
F560.60939438839057
s(I14
I7
tp83
F576.08954063427814
s(I12
I19
tp84
F599.54087069495404
s(I1
I18
tp85
F562.60939440456696
s(I15
I6
tp86
F574.08955076458813
s(I13
I18
tp87
F599.5408831445518
s(I0
I9
tp88
F507.53500047117467
s(I3
I4
tp89
F496.24220919558991
s(I4
I7
tp90
F528.36394622553337
s(I5
I6
tp91
F528.36395338043496
s(I16
I2
tp92
F557.15728140741567
s(I19
I15
tp93
F600.70253310088515
s(I17
I3
tp94
F565.41516233402967
s(I7
I16
tp95
F585.44032641230319
s(I20
I8
tp96
F591.77302960348595
s(I18
I8
tp97
F588.79094048754166
s(I8
I14
tp98
F583.4836748466978
s(I9
I15
tp99
F588.69218949349499
s(I10
I12
tp100
F583.76064945635414
s(I8
I20
tp101
F596.68141441358352
s(I11
I1
tp102
F527.49824257273372
s(I9
I17
tp103
F593.05402178168117
s(I14
I14
tp104
F594.68154030169251
s(I12
I10
tp105
F582.91003556958503
s(I15
I15
tp106
F597.13149225313896
s(I13
I11
tp107
F587.68115946308171
s(I2
I16
tp108
F561.09928913149247
s(I0
I0
tp109
F429.38313035612947
s(I3
I13
tp110
F554.94177920710024
s(I1
I13
tp111
F541.26818445672359
s(I4
I14
tp112
F565.09929671602276
s(I2
I10
tp113
F531.76198003007835
s(I5
I15
tp114
F573.89337273184424
s(I3
I19
tp115
F575.93563612539242
s(I6
I12
tp116
F568.7832546929335
s(I4
I20
tp117
F583.15350572083457
s(I19
I20
tp118
F603.96837563636825
s(I17
I4
tp119
F570.08956871821442
s(I7
I9
tp120
F560.12029144183032
s(I18
I3
tp121
F568.08957087773751
s(I11
I6
tp122
F561.69197020716967
s(I14
I17
tp123
F598.89693043154682
s(I12
I1
tp124
F533.07737787535086
s(I10
I17
tp125
F595.03209499941829
s(I15
I20
tp126
F602.05694217815278
s(I13
I4
tp127
F557.69198036880164
s(I0
I7
tp128
F492.4717936574238
s(I1
I6
tp129
F494.47179480068598
s(I2
I5
tp130
F495.89417978036181
s(I5
I8
tp131
F542.34142605790942
s(I6
I7
tp132
F542.34143284537276
s(I4
I19
tp133
F580.66957014235072
s(I7
I6
tp134
F542.14594457541807
s(I5
I18
tp135
F582.66957631951414
s(I19
I3
tp136
F570.6393314648725
s(I20
I4
tp137
F577.29713578938367
s(I18
I20
tp138
F603.57282959360225
s(I8
I2
tp139
F516.97915126471673
s(I9
I3
tp140
F531.49826365198339
s(I14
I2
tp141
F549.74719290377595
s(I3
I1
tp142
F468.63615644359032
s(I16
I13
tp143
F595.70867382864196
s(I6
I16
tp144
F581.61800912222225
s(I19
I8
tp145
F590.42689225509287
s(I17
I8
tp146
F586.91688918082684
s(I20
I3
tp147
F573.0835514440239
s(I18
I15
tp148
F599.91999662734122
s(I8
I9
tp149
F565.23377100119262
s(I9
I4
tp150
F539.07740711745134
s(I10
I3
tp151
F537.07741530547571
s(I11
I10
tp152
F580.4656169930945
s(I14
I5
tp153
F566.54344422664258
s(I12
I13
tp154
F590.30115628609167
s(I1
I16
tp155
F555.25671054929978
s(I15
I0
tp156
F540.46571912667866
s(I13
I16
tp157
F596.75241905025018
s(I0
I11
tp158
F521.32524845306125
s(I3
I6
tp159
F512.83843923853112
s(I1
I10
tp160
F523.32525890062198
s(I4
I1
tp161
F477.62398183317265
s(I5
I4
tp162
F513.00328618920798
s(I16
I4
tp163
F567.41521132785022
s(I6
I11
tp164
F564.6938292681383
s(I19
I17
tp165
F602.26442931110864
s(I17
I1
tp166
F554.54399577684455
s(I7
I18
tp167
F590.3159503309148
s(I20
I10
tp168
F596.41054129884014
s(I18
I6
tp169
F581.29718562226822
s(I9
I13
tp170
F583.76071277601307
s(I10
I10
tp171
F577.52812571646348
s(I11
I3
tp172
F542.45741662168871
s(I14
I12
tp173
F591.41253368425612
s(I12
I4
tp174
F553.74722006392585
s(I10
I20
tp175
F599.4917127446738
s(I15
I9
tp176
F586.07961634832407
s(I13
I9
tp177
F581.80612816037501
s(I0
I2
tp178
F449.18685231247957
s(I3
I15
tp179
F563.09935263510476
s(I1
I3
tp180
F468.62959864381759
s(I4
I8
tp181
F535.23809732096208
s(I2
I8
tp182
F518.5852102884586
s(I5
I13
tp183
F567.09935988270865
s(I6
I2
tp184
F503.06277176742066
s(I7
I11
tp185
F569.689222434057
s(I20
I17
tp186
F602.76956363711622
s(I18
I1
tp187
F557.7328087029033
s(I16
I17
tp188
F600.28108222678668
s(I12
I3
tp189
F547.22702031939878
s(I13
I2
tp190
F545.22702416438949
s(I1
I4
tp191
F477.75233489133888
s(I2
I3
tp192
F478.17895989888564
s(I6
I5
tp193
F528.32950598048649
s(I7
I0
tp194
F491.58157103397184
s(I5
I16
tp195
F577.00119603539599
s(I16
I8
tp196
F584.85793784414307
s(I19
I5
tp197
F579.29721022307547
s(I20
I6
tp198
F585.11470037791105
s(I18
I18
tp199
F602.43344117202219
s(I8
I4
tp200
F533.49831821145926
s(I9
I1
tp201
F514.97922081215961
s(I10
I6
tp202
F557.74724477574898
s(I0
I16
tp203
F548.94186180537952
s(I14
I0
tp204
F536.05054274898009
s(I12
I16
tp205
F595.83374850057351
s(I15
I5
tp206
F569.41525207672919
s(I3
I3
tp207
F487.29092814397126
s(I4
I4
tp208
F504.80902862861132
s(I16
I15
tp209
F598.09660821013006
s(I19
I10
tp210
F595.29293959582492
s(I17
I14
tp211
F598.04304905858726
s(I20
I13
tp212
F599.85555128477245
s(I18
I13
tp213
F598.08207709165549
s(I8
I11
tp214
F573.95908376266379
s(I9
I10
tp215
F573.95909159908433
s(I10
I1
tp216
F521.30405867596005
s(I8
I17
tp217
F590.84980403945031
s(I11
I12
tp218
F586.21356295920748
s(I14
I11
tp219
F589.42797771721723
s(I12
I15
tp220
F594.08608129416007
s(I15
I2
tp221
F553.69206734612976
s(I13
I14
tp222
F593.52114184714412
s(I0
I13
tp223
F533.61084946264486
s(I3
I8
tp224
F527.32530708384741
s(I1
I8
tp225
F509.53512713375466
s(I4
I3
tp226
F496.24231822145578
s(I2
I15
tp227
F557.25676420883633
s(I5
I2
tp228
F495.44687559099094
s(I16
I6
tp229
F576.63942322192122
s(I6
I9
tp230
F554.66825031494182
s(I19
I19
tp231
F603.4104690997674
s(I17
I7
tp232
F583.29054629151244
s(I7
I12
tp233
F573.53892893352202
s(I20
I20
tp234
F604.27193356534758
s(I18
I4
tp235
F572.63943874294637
s(I10
I8
tp236
F568.93477429524
s(I11
I5
tp237
F555.74726568914878
s(I14
I18
tp238
F600.08309512357755
s(I12
I6
tp239
F565.34238264729834
s(I10
I18
tp240
F596.8236905081784
s(I15
I11
tp241
F591.10239674356217
s(I13
I7
tp242
F573.4152884366581
s(I0
I4
tp243
F467.86200060200053
s(I1
I1
tp244
F449.24642572491905
s(I4
I10
tp245
F547.26829069335156
s(I2
I6
tp246
F503.97223325674622
s(I5
I11
tp247
F558.9418998905785
s(I6
I0
tp248
F483.93712787845737
s(I4
I16
tp249
F571.89347927509448
s(I7
I5
tp250
F535.01811893070681
s(I20
I19
tp251
F603.7520224868324
s(I16
I19
tp252
F601.84579433862245
s(I17
I18
tp253
F601.84580566588852
s(I15
I16
tp254
F598.39526649974209
s(I13
I0
tp255
F531.0774986858263
s(I11
I16
tp256
F594.66398074998972
s(I2
I1
tp257
F459.08129678416725
s(I7
I2
tp258
F510.0583014589925
s(I16
I10
tp259
F590.67690070114656
s(I19
I7
tp260
F587.11476075204939
s(I17
I11
tp261
F594.2519391787697
s(I20
I0
tp262
F557.79147697603287
s(I18
I16
tp263
F600.81199252983333
s(I8
I6
tp264
F548.00656021799114
s(I9
I7
tp265
F559.34474356812325
s(I10
I4
tp266
F544.45750016336558
s(I11
I9
tp267
F576.7512544578276
s(I0
I18
tp268
F557.09942407079598
s(I14
I6
tp269
F571.41531395183506
s(I12
I18
tp270
F598.93000173190228
s(I1
I19
tp271
F565.89348514220694
s(I15
I7
tp272
F578.63071869203884
s(I13
I19
tp273
F600.08315849834833
s(I0
I8
tp274
F500.06123574307048
s(I3
I5
tp275
F504.80907890822539
s(I4
I6
tp276
F520.95445214821484
s(I5
I7
tp277
F535.61207186275465
s(I16
I1
tp278
F551.14289225034895
s(I6
I20
tp279
F591.22097933831344
s(I19
I12
tp280
F598.08213169148644
s(I17
I12
tp281
F595.70884323516418
s(I7
I17
tp282
F587.96329093544
s(I20
I15
tp283
F601.35157652023202
s(I18
I11
tp284
F595.65835421397253
s(I8
I13
tp285
F580.68519102294704
s(I9
I8
tp286
F564.87106784616526
s(I10
I15
tp287
F590.93288925150523
s(I8
I19
tp288
F594.97575955544801
s(I11
I14
tp289
F590.69740048439769
s(I9
I18
tp290
F595.03225865408933
s(I14
I9
tp291
F583.99383870559598
s(I12
I9
tp292
F579.44068243905258
s(I1
I20
tp293
F569.00125328856041
s(I15
I12
tp294
F592.89568171917688
s(I13
I12
tp295
F589.87152144880974
s(I2
I19
tp296
F571.00125349674045
s(I0
I15
tp297
F544.36070426155504
s(I3
I10
tp298
F539.61090880293023
s(I1
I14
tp299
F546.36071227077377
s(I4
I13
tp300
F561.25681799675226
s(I2
I13
tp301
F548.36071520332371
s(I5
I0
tp302
F476.11656779210074
s(I3
I16
tp303
F566.60957075953456
s(I6
I15
tp304
F578.72857200031558
s(I17
I5
tp305
F574.63948564363182
s(I7
I14
tp306
F579.94684619981683
s(I18
I2
tp307
F563.22770407072892
s(I11
I7
tp308
F567.34243876367589
s(I14
I16
tp309
F597.57796585593803
s(I12
I0
tp310
F525.49839074136742
s(I10
I16
tp311
F593.05422868867754
s(I13
I5
tp312
F563.34244678793857
s(I0
I6
tp313
F484.59077068212116
s(I1
I7
tp314
F502.06126239827273
s(I2
I4
tp315
F487.29100543208176
s(I5
I9
tp316
F548.49720322331871
s(I6
I6
tp317
F535.61208787557302
s(I4
I18
tp318
F577.93580149109073
s(I7
I7
tp319
F548.70208728608316
s(I5
I19
tp320
F585.15368634324193
s(I19
I0
tp321
F554.74308408813329
s(I17
I16
tp322
F600.04018339616482
s(I8
I1
tp323
F508.0583274229773
s(I15
I18
tp324
F600.64271803427164
s(I11
I18
tp325
F598.08883882418149
s(I16
I12
tp326
F594.33595203682876
s(I6
I19
tp327
F589.20489698087681
s(I19
I9
tp328
F593.15702362746788
s(I17
I9
tp329
F589.9506471368486
s(I20
I2
tp330
F568.63950664714548
s(I18
I14
tp331
F599.03668149298301
s(I8
I8
tp332
F560.12046864197657
s(I9
I5
tp333
F546.45753185291778
s(I10
I2
tp334
F529.4984087672068
s(I11
I11
tp335
F583.57452647231435
s(I0
I20
tp336
F563.89353986365882
s(I14
I4
tp337
F561.34247119332338
s(I12
I12
tp338
F588.18974817556318
s(I1
I17
tp339
F559.09946855268709
s(I15
I1
tp340
F547.41803320412464
s(I13
I17
tp341
F598.22070476614238
s(I0
I10
tp342
F514.58532925669738
s(I3
I7
tp343
F520.34286659474139
s(I1
I11
tp344
F529.7621669860406
s(I4
I0
tp345
F467.7959408855707
s(I5
I5
tp346
F520.9544871892673
s(I16
I3
tp347
F562.54360494182106
s(I6
I10
tp348
F560.00527381237168
s(I19
I14
tp349
F599.88664340407036
s(I17
I2
tp350
F560.29532131750148
s(I7
I19
tp351
F592.45329326757485
s(I20
I9
tp352
F594.38609022763626
s(I18
I9
tp353
F591.6621891996723
s(I8
I15
tp354
F586.07858252123333
s(I9
I14
tp355
F586.32278869893503
s(I10
I13
tp356
F586.32279728005301
s(I11
I0
tp357
F519.30413898745735
s(I9
I16
tp358
F590.93299046066863
s(I14
I15
tp359
F596.1645934547189
s(I12
I11
tp360
F585.78090636614957
s(I15
I14
tp361
F595.81059628431649
s(I13
I10
tp362
F585.03863221917231
s(I2
I17
tp363
F564.60960673276804
s(I0
I1
tp364
F439.35161692536536
s(I3
I12
tp365
F550.36075317141047
s(I1
I12
tp366
F535.61095882058737
s(I4
I15
tp367
F568.60961514679434
s(I2
I11
tp368
F537.61096012956739
s(I5
I14
tp369
F570.60962282062519
s(I3
I18
tp370
F573.00134576454957
s(I6
I13
tp371
F572.39471303098401
s(I7
I8
tp372
F554.6683545872429
s(I20
I16
tp373
F602.07426415083444
s(I18
I0
tp374
F551.49874266507004
s(I16
I16
tp375
F599.22297104445556
s(I12
I2
tp376
F540.45755062318347
s(I13
I3
tp377
F551.74736199638062
s(I1
I5
tp378
F486.37225606959686
s(I2
I2
tp379
F468.63631866206833
s(I6
I4
tp380
F520.48469623153107
s(I7
I1
tp381
F501.06290151285435
s(I5
I17
tp382
F579.93586644180232
s(I19
I2
tp383
F566.00999474673017
s(I20
I5
tp384
F581.3330086659488
s(I8
I3
tp385
F525.30415663026349
s(I9
I2
tp386
F523.30416274449726
s(I11
I20
tp387
F600.19163345881941
s(I14
I3
tp388
F555.69218479045401
s(I3
I0
tp389
F458.80355381048065
s(I16
I14
tp390
F596.92442639466151
s(I6
I17
tp391
F584.34784515519789
s(I19
I11
tp392
F596.88977978807532
s(I17
I15
tp393
F599.03850806850835
s(I7
I20
tp394
F594.31455833961218
s(I20
I12
tp395
F598.99510992003695
s(I18
I12
tp396
F596.97312025440237
s(I8
I10
tp397
F569.74746853004399
s(I9
I11
tp398
F577.5618950771958
s(I10
I0
tp399
F512.97934283475422
s(I8
I16
tp400
F588.53070523197084
s(I11
I13
tp401
F588.54562030632439
s(I14
I10
tp402
F587.00062460292531
s(I12
I14
tp403
F592.24511864040585
s(I15
I3
tp404
F559.342493924716
s(I13
I15
tp405
F595.17767004088876
s(I2
I20
tp406
F573.93589059243368
s(I0
I12
tp407
F527.76218798297054
s(I3
I9
tp408
F533.76218812980187
s(I1
I9
tp409
F516.5853644274747
s(I4
I2
tp410
F487.15438447956876
s(I2
I14
tp411
F552.94200592846141
s(I5
I3
tp412
F504.49609499122101
s(I16
I5
tp413
F572.08979536634308
s(I6
I8
tp414
F548.70214129922886
s(I19
I16
tp415
F601.50107952185965
s(I17
I0
tp416
F548.0730488159229
s(I7
I13
tp417
F576.90834717442328
s(I20
I11
tp418
F597.90214518368703
s(I18
I7
tp419
F585.33303474382092
s(I9
I12
tp420
F580.88240640541164
s(I10
I11
tp421
F580.88241363386203
s(I11
I2
tp422
F535.07759617118757
s(I14
I13
tp423
F593.12025119104203
s(I12
I5
tp424
F559.69219521877233
s(I15
I8
tp425
F582.66005393880494
s(I13
I8
tp426
F577.92727636931556
s(I0
I3
tp427
F458.7367736394803
s(I3
I14
tp428
F559.25690790872886
s(I1
I2
tp429
F459.08138810661796
s(I4
I9
tp430
F541.55379490472649
s(I2
I9
tp431
F525.32544571456015
s(I5
I12
tp432
F563.25691907822932
s(I3
I20
tp433
F578.66984292018708
s(I6
I3
tp434
F512.05839325310023
s(I7
I10
tp435
F565.23398606521721
s(I20
I18
tp436
F603.41070625174689
s(I16
I18
tp437
F601.23744395653853
s(I17
I19
tp438
F602.43372281797372
s(I14
I20
tp439
F601.5536397374284
s(I15
I17
tp440
F599.57806990860809
s(I13
I1
tp441
F538.45759374073964
s(I11
I17
tp442
F596.46341244513314
s(I2
I0
tp443
F449.24654440378265
sa(dp444
g3
I1
sg4
I1
sg5
I3
sg6
I0
sg7
I1
sg8
I0
sg9
I1
sg10
I4
sg11
I1
sg12
I-5
sg13
I5
sg14
I1
sg15
I4
sg16
I0
sg17
I1
sg18
I0
sg19
I5
sg20
I1
sg21
I0
sg22
I1
sg23
I1
sg24
I0
sg25
I1
sg26
I1
sg27
I0
sg28
I1
sg29
I0
sg30
I1
sg31
I1
sg32
I1
sg33
I1
sg34
I-3
sg35
I-4
sg36
I-1
sg37
I-4
sg38
I-1
sg39
I-2
sg40
I1
sg41
I-2
sg42
I1
sg43
I0
sg44
I1
sg45
I1
sg46
I0
sg47
I2
sg48
I1
sg49
I2
sg50
I0
sg51
I0
sg52
I1
sg53
I0
sg54
I1
sg55
I2
sg56
I0
sg57
I1
sg58
I0
sg59
I0
sg60
I0
sg61
I1
sg62
I-1
sg63
I1
sg64
I0
sg65
I0
sg66
I5
sg67
I1
sg68
I3
sg69
I0
sg70
I0
sg71
I0
sg72
I1
sg73
I0
sg74
I2
sg75
I1
sg76
I5
sg77
I1
sg78
I1
sg79
I1
sg80
I1
sg81
I1
sg82
I-5
sg83
I1
sg84
I0
sg85
I-4
sg86
I2
sg87
I1
sg88
I-2
sg89
I0
sg90
I0
sg91
I1
sg92
I5
sg93
I1
sg94
I5
sg95
I0
sg96
I1
sg97
I1
sg98
I0
sg99
I0
sg100
I1
sg101
I0
sg102
I4
sg103
I0
sg104
I1
sg105
I1
sg106
I1
sg107
I1
sg108
I-3
sg109
I0
sg110
I-2
sg111
I-3
sg112
I-1
sg113
I-1
sg114
I0
sg115
I-2
sg116
I0
sg117
I-1
sg118
I0
sg119
I4
sg120
I0
sg121
I5
sg122
I1
sg123
I1
sg124
I4
sg125
I1
sg126
I0
sg127
I3
sg128
I-1
sg129
I0
sg130
I0
sg131
I0
sg132
I1
sg133
I-1
sg134
I1
sg135
I0
sg136
I4
sg137
I3
sg138
I0
sg139
I2
sg140
I2
sg141
I5
sg142
I1
sg143
I0
sg144
I0
sg145
I1
sg146
I1
sg147
I4
sg148
I1
sg149
I1
sg150
I1
sg151
I2
sg152
I1
sg153
I3
sg154
I1
sg155
I-4
sg156
I5
sg157
I1
sg158
I-3
sg159
I0
sg160
I-2
sg161
I1
sg162
I1
sg163
I4
sg164
I0
sg165
I1
sg166
I5
sg167
I0
sg168
I1
sg169
I1
sg170
I0
sg171
I1
sg172
I3
sg173
I1
sg174
I3
sg175
I0
sg176
I1
sg177
I1
sg178
I0
sg179
I-2
sg180
I0
sg181
I0
sg182
I0
sg183
I0
sg184
I1
sg185
I0
sg186
I1
sg187
I5
sg188
I1
sg189
I3
sg190
I4
sg191
I0
sg192
I0
sg193
I1
sg194
I2
sg195
I0
sg196
I1
sg197
I2
sg198
I2
sg199
I1
sg200
I1
sg201
I3
sg202
I1
sg203
I-5
sg204
I5
sg205
I1
sg206
I3
sg207
I1
sg208
I1
sg209
I1
sg210
I1
sg211
I0
sg212
I1
sg213
I0
sg214
I0
sg215
I1
sg216
I4
sg217
I0
sg218
I1
sg219
I1
sg220
I1
sg221
I5
sg222
I1
sg223
I-3
sg224
I0
sg225
I-1
sg226
I1
sg227
I-3
sg228
I1
sg229
I1
sg230
I0
sg231
I0
sg232
I1
sg233
I0
sg234
I0
sg235
I3
sg236
I1
sg237
I2
sg238
I1
sg239
I2
sg240
I1
sg241
I1
sg242
I1
sg243
I0
sg244
I0
sg245
I0
sg246
I0
sg247
I0
sg248
I2
sg249
I-1
sg250
I1
sg251
I0
sg252
I0
sg253
I1
sg254
I1
sg255
I5
sg256
I1
sg257
I1
sg258
I2
sg259
I1
sg260
I1
sg261
I1
sg262
I5
sg263
I1
sg264
I1
sg265
I1
sg266
I2
sg267
I1
sg268
I-5
sg269
I2
sg270
I1
sg271
I-4
sg272
I1
sg273
I0
sg274
I-1
sg275
I0
sg276
I0
sg277
I0
sg278
I5
sg279
I0
sg280
I1
sg281
I1
sg282
I0
sg283
I1
sg284
I1
sg285
I0
sg286
I1
sg287
I1
sg288
I0
sg289
I1
sg290
I0
sg291
I1
sg292
I1
sg293
I-4
sg294
I1
sg295
I1
sg296
I-3
sg297
I-4
sg298
I0
sg299
I-3
sg300
I-1
sg301
I-2
sg302
I1
sg303
I-2
sg304
I0
sg305
I2
sg306
I0
sg307
I5
sg308
I1
sg309
I1
sg310
I5
sg311
I1
sg312
I3
sg313
I0
sg314
I0
sg315
I0
sg316
I0
sg317
I1
sg318
I-1
sg319
I1
sg320
I0
sg321
I5
sg322
I1
sg323
I3
sg324
I1
sg325
I1
sg326
I1
sg327
I0
sg328
I1
sg329
I1
sg330
I5
sg331
I0
sg332
I1
sg333
I1
sg334
I3
sg335
I1
sg336
I-5
sg337
I4
sg338
I1
sg339
I-4
sg340
I5
sg341
I1
sg342
I-2
sg343
I0
sg344
I-2
sg345
I1
sg346
I1
sg347
I5
sg348
I0
sg349
I1
sg350
I5
sg351
I0
sg352
I1
sg353
I1
sg354
I0
sg355
I0
sg356
I1
sg357
I5
sg358
I0
sg359
I1
sg360
I1
sg361
I1
sg362
I1
sg363
I-3
sg364
I0
sg365
I-1
sg366
I-2
sg367
I-1
sg368
I-1
sg369
I0
sg370
I-2
sg371
I0
sg372
I1
sg373
I1
sg374
I5
sg375
I1
sg376
I4
sg377
I4
sg378
I0
sg379
I0
sg380
I1
sg381
I2
sg382
I0
sg383
I5
sg384
I3
sg385
I2
sg386
I3
sg387
I0
sg388
I4
sg389
I1
sg390
I1
sg391
I0
sg392
I1
sg393
I1
sg394
I0
sg395
I1
sg396
I1
sg397
I0
sg398
I1
sg399
I4
sg400
I0
sg401
I1
sg402
I1
sg403
I1
sg404
I5
sg405
I1
sg406
I-3
sg407
I-3
sg408
I0
sg409
I-1
sg410
I1
sg411
I-3
sg412
I1
sg413
I3
sg414
I0
sg415
I1
sg416
I5
sg417
I0
sg418
I1
sg419
I1
sg420
I0
sg421
I1
sg422
I3
sg423
I1
sg424
I2
sg425
I1
sg426
I1
sg427
I0
sg428
I-2
sg429
I0
sg430
I0
sg431
I-1
sg432
I0
sg433
I-2
sg434
I1
sg435
I0
sg436
I1
sg437
I1
sg438
I0
sg439
I0
sg440
I1
sg441
I5
sg442
I1
sg443
I1
sa.